; Function Attrs: nofree nosync nounwind memory(argmem: read) uwtable
define i32 @Ga2_ObjComputeTruth_rec(ptr noundef %0, ptr noundef %1, i32 noundef %2) local_unnamed_addr #0 {
  %4 = load i64, ptr %1, align 4
  %5 = icmp sgt i64 %4, -1
  %6 = icmp ne i32 %2, 0
  %or.cond = or i1 %6, %5
  br i1 %or.cond, label %9, label %common.ret

common.ret:                                       ; preds = %3
  %7 = getelementptr inbounds nuw i8, ptr %1, i64 8
  %8 = load i32, ptr %7, align 4
  br label %common.ret16

common.ret16:                                     ; preds = %9, %common.ret
  %common.ret16.op = phi i32 [ %8, %common.ret ], [ %27, %9 ]
  ret i32 %common.ret16.op

9:                                                ; preds = %3
  %10 = and i64 %4, 536870911
  %11 = sub nsw i64 0, %10
  %12 = getelementptr inbounds %struct.Gia_Obj_t_, ptr %1, i64 %11
  %13 = tail call i32 @Ga2_ObjComputeTruth_rec(ptr noundef %0, ptr noundef nonnull %12, i32 noundef 0)
  %14 = lshr i64 %4, 32
  %15 = and i64 %14, 536870911
  %16 = sub nsw i64 0, %15
  %17 = getelementptr inbounds %struct.Gia_Obj_t_, ptr %1, i64 %16
  %18 = tail call i32 @Ga2_ObjComputeTruth_rec(ptr noundef %0, ptr noundef nonnull %17, i32 noundef 0)
  %19 = trunc i64 %4 to i32
  %20 = shl i32 %19, 2
  %21 = ashr i32 %20, 31
  %22 = xor i32 %13, %21
  %23 = shl i64 %4, 2
  %24 = ashr i64 %23, 63
  %25 = trunc nsw i64 %24 to i32
  %26 = xor i32 %18, %25
  %27 = and i32 %26, %22
  br label %common.ret16
}